target datalayout = "e-m:e-p270:32:32-p271:32:32-p272:64:64-i64:64-i128:128-f80:128-n8:16:32:64-S128"
target triple = "x86_64-pc-linux-gnu"

%struct.lua_State = type { %struct.GCRef, i8, i8, i8, i8, %struct.MRef, %struct.GCRef, ptr, ptr, %struct.MRef, %struct.MRef, %struct.GCRef, %struct.GCRef, ptr, i32 }
%struct.MRef = type { i64 }
%struct.GCRef = type { i64 }
%union.TValue = type { i64 }
%struct.GG_State = type { %struct.lua_State, %struct.global_State, %struct.jit_State, [64 x i16], [243 x ptr], [57 x i32] }
%struct.global_State = type { ptr, ptr, %struct.GCState, %struct.GCstr, i8, i8, i8, i8, %struct.StrInternState, i32, %struct.GCRef, %struct.SBuf, %union.TValue, %union.TValue, %struct.Node, %union.TValue, %struct.GCupval, i32, i32, ptr, ptr, ptr, i32, i32, %struct.GCRef, %struct.MRef, %struct.MRef, %struct.PRNGState, [39 x %struct.GCRef] }
%struct.GCState = type { i64, i64, i8, i8, i8, i8, i32, %struct.GCRef, %struct.MRef, %struct.GCRef, %struct.GCRef, %struct.GCRef, %struct.GCRef, i64, i64, i32, i32, %struct.MRef }
%struct.GCstr = type { %struct.GCRef, i8, i8, i8, i8, i32, i32, i32 }
%struct.StrInternState = type { ptr, i32, i32, i32, i8, i8, i8, i8, i64 }
%struct.SBuf = type { ptr, ptr, ptr, %struct.MRef }
%struct.Node = type { %union.TValue, %union.TValue, %struct.MRef }
%struct.GCupval = type { %struct.GCRef, i8, i8, i8, i8, %union.anon, %struct.MRef, i32 }
%union.anon = type { %struct.anon.1 }
%struct.anon.1 = type { %struct.GCRef, %struct.GCRef }
%struct.PRNGState = type { [4 x i64] }
%struct.jit_State = type { %struct.GCtrace, ptr, ptr, ptr, ptr, ptr, ptr, i32, i32, i32, i8, i8, %struct.IRType1, i8, %struct.FoldState, ptr, i32, i32, i32, i32, i32, i32, i32, [1 x i32], [5 x %union.TValue], [3 x %union.TValue], ptr, i32, i32, i32, i32, ptr, ptr, i32, i32, i8, ptr, i32, i32, i16, [101 x i16], [258 x i32], [15 x i32], [16 x ptr], [64 x %struct.HotPenalty], i32, [16 x %struct.BPropEntry], i32, %struct.ScEvEntry, ptr, i32, i32, i32, ptr, i32, i32, ptr, ptr, ptr, i64, i64, %union.TValue, ptr, i32, i32 }
%struct.GCtrace = type { %struct.GCRef, i8, i8, i16, i32, i32, %struct.GCRef, ptr, i32, i32, ptr, ptr, %struct.GCRef, %struct.MRef, i32, i32, ptr, i32, i16, i16, i16, i16, i16, i16, i16, i8, i8, i8, i8 }
%struct.IRType1 = type { i8 }
%struct.FoldState = type { %union.IRIns, [2 x %union.IRIns], [2 x %union.IRIns] }
%union.IRIns = type { %struct.GCRef }
%struct.HotPenalty = type { %struct.MRef, i16, i16 }
%struct.BPropEntry = type { i16, i16, i32 }
%struct.ScEvEntry = type { %struct.MRef, i16, i16, i16, i16, %struct.IRType1, i8 }

@.str.9 = private unnamed_addr constant [24 x i8] c"store to dead GC object\00", align 1
@.str.30 = private unnamed_addr constant [5 x i8] c"nins\00", align 1
@.str.31 = private unnamed_addr constant [3 x i8] c"nk\00", align 1
@.str.32 = private unnamed_addr constant [5 x i8] c"link\00", align 1
@.str.33 = private unnamed_addr constant [6 x i8] c"nexit\00", align 1
@jit_trlinkname = internal constant [9 x ptr] [ptr @.str.35, ptr @.str.36, ptr @.str.37, ptr @.str.38, ptr @.str.39, ptr @.str.40, ptr @.str.41, ptr @.str.42, ptr @.str.43], align 16
@.str.34 = private unnamed_addr constant [9 x i8] c"linktype\00", align 1

; Function Attrs: alwaysinline nounwind uwtable
define internal void @checklivetv(ptr noundef %0, ptr noundef %1, ptr noundef %2) #5 {
  %4 = alloca ptr, align 8
  %5 = alloca ptr, align 8
  %6 = alloca ptr, align 8
  store ptr %0, ptr %4, align 8, !tbaa !4
  store ptr %1, ptr %5, align 8, !tbaa !56
  store ptr %2, ptr %6, align 8, !tbaa !41
  ret void
}

; Function Attrs: alwaysinline nounwind uwtable
define internal void @setgcVraw(ptr noundef %0, ptr noundef %1, i32 noundef %2) #5 {
  %4 = alloca ptr, align 8
  %5 = alloca ptr, align 8
  %6 = alloca i32, align 4
  store ptr %0, ptr %4, align 8, !tbaa !56
  store ptr %1, ptr %5, align 8, !tbaa !57
  store i32 %2, ptr %6, align 4, !tbaa !35
  %7 = load ptr, ptr %5, align 8, !tbaa !57
  %8 = ptrtoint ptr %7 to i64
  %9 = load i32, ptr %6, align 4, !tbaa !35
  %10 = zext i32 %9 to i64
  %11 = shl i64 %10, 47
  %12 = or i64 %8, %11
  %13 = load ptr, ptr %4, align 8, !tbaa !56
  %14 = getelementptr inbounds nuw %struct.GCRef, ptr %13, i32 0, i32 0
  store i64 %12, ptr %14, align 8, !tbaa !37
  ret void
}

; Function Attrs: alwaysinline nounwind uwtable
define internal void @setgcV(ptr noundef %0, ptr noundef %1, ptr noundef %2, i32 noundef %3) #5 {
  %5 = alloca ptr, align 8
  %6 = alloca ptr, align 8
  %7 = alloca ptr, align 8
  %8 = alloca i32, align 4
  store ptr %0, ptr %5, align 8, !tbaa !4
  store ptr %1, ptr %6, align 8, !tbaa !56
  store ptr %2, ptr %7, align 8, !tbaa !57
  store i32 %3, ptr %8, align 4, !tbaa !35
  %9 = load ptr, ptr %6, align 8, !tbaa !56
  %10 = load ptr, ptr %7, align 8, !tbaa !57
  %11 = load i32, ptr %8, align 4, !tbaa !35
  call void @setgcVraw(ptr noundef %9, ptr noundef %10, i32 noundef %11)
  %12 = load ptr, ptr %5, align 8, !tbaa !4
  %13 = load ptr, ptr %6, align 8, !tbaa !56
  call void @checklivetv(ptr noundef %12, ptr noundef %13, ptr noundef @.str.9)
  ret void
}

; Function Attrs: alwaysinline nounwind uwtable
define internal void @setintV(ptr noundef %0, i32 noundef %1) #5 {
  %3 = alloca ptr, align 8
  %4 = alloca i32, align 4
  store ptr %0, ptr %3, align 8, !tbaa !56
  store i32 %1, ptr %4, align 4, !tbaa !35
  %5 = load i32, ptr %4, align 4, !tbaa !35
  %6 = sitofp i32 %5 to double
  %7 = load ptr, ptr %3, align 8, !tbaa !56
  store double %6, ptr %7, align 8, !tbaa !37
  ret void
}

; Function Attrs: alwaysinline nounwind uwtable
define internal void @setstrV(ptr noundef %0, ptr noundef %1, ptr noundef %2) #5 {
  %4 = alloca ptr, align 8
  %5 = alloca ptr, align 8
  %6 = alloca ptr, align 8
  store ptr %0, ptr %4, align 8, !tbaa !4
  store ptr %1, ptr %5, align 8, !tbaa !56
  store ptr %2, ptr %6, align 8, !tbaa !39
  %7 = load ptr, ptr %4, align 8, !tbaa !4
  %8 = load ptr, ptr %5, align 8, !tbaa !56
  %9 = load ptr, ptr %6, align 8, !tbaa !39
  call void @setgcV(ptr noundef %7, ptr noundef %8, ptr noundef %9, i32 noundef -5)
  ret void
}

; Function Attrs: nounwind uwtable
define internal void @setintfield(ptr noundef %0, ptr noundef %1, ptr noundef %2, i32 noundef %3) #0 {
  %5 = alloca ptr, align 8
  %6 = alloca ptr, align 8
  %7 = alloca ptr, align 8
  %8 = alloca i32, align 4
  store ptr %0, ptr %5, align 8, !tbaa !4
  store ptr %1, ptr %6, align 8, !tbaa !59
  store ptr %2, ptr %7, align 8, !tbaa !41
  store i32 %3, ptr %8, align 4, !tbaa !35
  %9 = load ptr, ptr %5, align 8, !tbaa !4
  %10 = load ptr, ptr %6, align 8, !tbaa !59
  %11 = load ptr, ptr %5, align 8, !tbaa !4
  %12 = load ptr, ptr %7, align 8, !tbaa !41
  %13 = load ptr, ptr %7, align 8, !tbaa !41
  %14 = call i64 @strlen(ptr noundef %13) #12
  %15 = call ptr @lj_str_new(ptr noundef %11, ptr noundef %12, i64 noundef %14)
  %16 = call ptr @lj_tab_setstr(ptr noundef %9, ptr noundef %10, ptr noundef %15)
  %17 = load i32, ptr %8, align 4, !tbaa !35
  call void @setintV(ptr noundef %16, i32 noundef %17)
  ret void
}

; Function Attrs: nounwind uwtable
define internal ptr @jit_checktrace(ptr noundef %0) #0 {
  %2 = alloca ptr, align 8
  %3 = alloca ptr, align 8
  %4 = alloca i32, align 4
  %5 = alloca ptr, align 8
  %6 = alloca i32, align 4
  store ptr %0, ptr %3, align 8, !tbaa !4
  call void @llvm.lifetime.start.p0(i64 4, ptr %4) #9
  %7 = load ptr, ptr %3, align 8, !tbaa !4
  %8 = call i32 @lj_lib_checkint(ptr noundef %7, i32 noundef 1)
  store i32 %8, ptr %4, align 4, !tbaa !35
  call void @llvm.lifetime.start.p0(i64 8, ptr %5) #9
  %9 = load ptr, ptr %3, align 8, !tbaa !4
  %10 = getelementptr inbounds nuw %struct.lua_State, ptr %9, i32 0, i32 5
  %11 = getelementptr inbounds nuw %struct.MRef, ptr %10, i32 0, i32 0
  %12 = load i64, ptr %11, align 8, !tbaa !17
  %13 = inttoptr i64 %12 to ptr
  %14 = getelementptr inbounds i8, ptr %13, i64 -96
  %15 = getelementptr inbounds nuw %struct.GG_State, ptr %14, i32 0, i32 2
  store ptr %15, ptr %5, align 8, !tbaa !18
  %16 = load i32, ptr %4, align 4, !tbaa !35
  %17 = icmp ugt i32 %16, 0
  br i1 %17, label %18, label %34

18:                                               ; preds = %1
  %19 = load i32, ptr %4, align 4, !tbaa !35
  %20 = load ptr, ptr %5, align 8, !tbaa !18
  %21 = getelementptr inbounds nuw %struct.jit_State, ptr %20, i32 0, i32 38
  %22 = load i32, ptr %21, align 4, !tbaa !114
  %23 = icmp ult i32 %19, %22
  br i1 %23, label %24, label %34

24:                                               ; preds = %18
  %25 = load ptr, ptr %5, align 8, !tbaa !18
  %26 = getelementptr inbounds nuw %struct.jit_State, ptr %25, i32 0, i32 36
  %27 = load ptr, ptr %26, align 8, !tbaa !115
  %28 = load i32, ptr %4, align 4, !tbaa !35
  %29 = zext i32 %28 to i64
  %30 = getelementptr inbounds nuw %struct.GCRef, ptr %27, i64 %29
  %31 = getelementptr inbounds nuw %struct.GCRef, ptr %30, i32 0, i32 0
  %32 = load i64, ptr %31, align 8, !tbaa !84
  %33 = inttoptr i64 %32 to ptr
  store ptr %33, ptr %2, align 8
  store i32 1, ptr %6, align 4
  br label %35

34:                                               ; preds = %18, %1
  store ptr null, ptr %2, align 8
  store i32 1, ptr %6, align 4
  br label %35

35:                                               ; preds = %34, %24
  call void @llvm.lifetime.end.p0(i64 8, ptr %5) #9
  call void @llvm.lifetime.end.p0(i64 4, ptr %4) #9
  %36 = load ptr, ptr %2, align 8
  ret ptr %36
}

; Function Attrs: nounwind uwtable
define internal i32 @lj_cf_jit_util_traceinfo(ptr noundef %0) #0 {
  %2 = alloca i32, align 4
  %3 = alloca ptr, align 8
  %4 = alloca ptr, align 8
  %5 = alloca ptr, align 8
  %6 = alloca i32, align 4
  store ptr %0, ptr %3, align 8, !tbaa !4
  call void @llvm.lifetime.start.p0(i64 8, ptr %4) #9
  %7 = load ptr, ptr %3, align 8, !tbaa !4
  %8 = call ptr @jit_checktrace(ptr noundef %7)
  store ptr %8, ptr %4, align 8, !tbaa !85
  %9 = load ptr, ptr %4, align 8, !tbaa !85
  %10 = icmp ne ptr %9, null
  br i1 %10, label %11, label %67

11:                                               ; preds = %1
  call void @llvm.lifetime.start.p0(i64 8, ptr %5) #9
  %12 = load ptr, ptr %3, align 8, !tbaa !4
  call void @lua_createtable(ptr noundef %12, i32 noundef 0, i32 noundef 8)
  %13 = load ptr, ptr %3, align 8, !tbaa !4
  %14 = getelementptr inbounds nuw %struct.lua_State, ptr %13, i32 0, i32 8
  %15 = load ptr, ptr %14, align 8, !tbaa !16
  %16 = getelementptr inbounds %union.TValue, ptr %15, i64 -1
  %17 = getelementptr inbounds nuw %struct.GCRef, ptr %16, i32 0, i32 0
  %18 = load i64, ptr %17, align 8, !tbaa !37
  %19 = and i64 %18, 140737488355327
  %20 = inttoptr i64 %19 to ptr
  store ptr %20, ptr %5, align 8, !tbaa !59
  %21 = load ptr, ptr %3, align 8, !tbaa !4
  %22 = load ptr, ptr %5, align 8, !tbaa !59
  %23 = load ptr, ptr %4, align 8, !tbaa !85
  %24 = getelementptr inbounds nuw %struct.GCtrace, ptr %23, i32 0, i32 4
  %25 = load i32, ptr %24, align 4, !tbaa !86
  %26 = sub nsw i32 %25, 32768
  %27 = sub nsw i32 %26, 1
  call void @setintfield(ptr noundef %21, ptr noundef %22, ptr noundef @.str.30, i32 noundef %27)
  %28 = load ptr, ptr %3, align 8, !tbaa !4
  %29 = load ptr, ptr %5, align 8, !tbaa !59
  %30 = load ptr, ptr %4, align 8, !tbaa !85
  %31 = getelementptr inbounds nuw %struct.GCtrace, ptr %30, i32 0, i32 8
  %32 = load i32, ptr %31, align 8, !tbaa !87
  %33 = sub nsw i32 32768, %32
  call void @setintfield(ptr noundef %28, ptr noundef %29, ptr noundef @.str.31, i32 noundef %33)
  %34 = load ptr, ptr %3, align 8, !tbaa !4
  %35 = load ptr, ptr %5, align 8, !tbaa !59
  %36 = load ptr, ptr %4, align 8, !tbaa !85
  %37 = getelementptr inbounds nuw %struct.GCtrace, ptr %36, i32 0, i32 21
  %38 = load i16, ptr %37, align 2, !tbaa !88
  %39 = zext i16 %38 to i32
  call void @setintfield(ptr noundef %34, ptr noundef %35, ptr noundef @.str.32, i32 noundef %39)
  %40 = load ptr, ptr %3, align 8, !tbaa !4
  %41 = load ptr, ptr %5, align 8, !tbaa !59
  %42 = load ptr, ptr %4, align 8, !tbaa !85
  %43 = getelementptr inbounds nuw %struct.GCtrace, ptr %42, i32 0, i32 3
  %44 = load i16, ptr %43, align 2, !tbaa !89
  %45 = zext i16 %44 to i32
  call void @setintfield(ptr noundef %40, ptr noundef %41, ptr noundef @.str.33, i32 noundef %45)
  %46 = load ptr, ptr %3, align 8, !tbaa !4
  %47 = load ptr, ptr %3, align 8, !tbaa !4
  %48 = getelementptr inbounds nuw %struct.lua_State, ptr %47, i32 0, i32 8
  %49 = load ptr, ptr %48, align 8, !tbaa !16
  %50 = getelementptr inbounds nuw %union.TValue, ptr %49, i32 1
  store ptr %50, ptr %48, align 8, !tbaa !16
  %51 = load ptr, ptr %3, align 8, !tbaa !4
  %52 = load ptr, ptr %4, align 8, !tbaa !85
  %53 = getelementptr inbounds nuw %struct.GCtrace, ptr %52, i32 0, i32 27
  %54 = load i8, ptr %53, align 4, !tbaa !90
  %55 = zext i8 %54 to i64
  %56 = getelementptr inbounds nuw [9 x ptr], ptr @jit_trlinkname, i64 0, i64 %55
  %57 = load ptr, ptr %56, align 8, !tbaa !41
  %58 = load ptr, ptr %4, align 8, !tbaa !85
  %59 = getelementptr inbounds nuw %struct.GCtrace, ptr %58, i32 0, i32 27
  %60 = load i8, ptr %59, align 4, !tbaa !90
  %61 = zext i8 %60 to i64
  %62 = getelementptr inbounds nuw [9 x ptr], ptr @jit_trlinkname, i64 0, i64 %61
  %63 = load ptr, ptr %62, align 8, !tbaa !41
  %64 = call i64 @strlen(ptr noundef %63) #12
  %65 = call ptr @lj_str_new(ptr noundef %51, ptr noundef %57, i64 noundef %64)
  call void @setstrV(ptr noundef %46, ptr noundef %49, ptr noundef %65)
  %66 = load ptr, ptr %3, align 8, !tbaa !4
  call void @lua_setfield(ptr noundef %66, i32 noundef -2, ptr noundef @.str.34)
  store i32 1, ptr %2, align 4
  store i32 1, ptr %6, align 4
  call void @llvm.lifetime.end.p0(i64 8, ptr %5) #9
  br label %68

67:                                               ; preds = %1
  store i32 0, ptr %2, align 4
  store i32 1, ptr %6, align 4
  br label %68

68:                                               ; preds = %67, %11
  call void @llvm.lifetime.end.p0(i64 8, ptr %4) #9
  %69 = load i32, ptr %2, align 4
  ret i32 %69
}