; Function Attrs: nounwind uwtable
define internal range(i32 0, 2) i32 @lj_cf_jit_util_traceinfo(ptr noundef %0) #0 {
  %2 = tail call i32 @lj_lib_checkint(ptr noundef %0, i32 noundef 1) #8
  %3 = getelementptr inbounds nuw i8, ptr %0, i64 16
  %4 = load i64, ptr %3, align 8, !tbaa !4
  %5 = inttoptr i64 %4 to ptr
  %.not.i = icmp eq i32 %2, 0
  br i1 %.not.i, label %jit_checktrace.exit.thread, label %6

6:                                                ; preds = %1
  %7 = getelementptr inbounds nuw i8, ptr %5, i64 1132
  %8 = load i32, ptr %7, align 4, !tbaa !71
  %9 = icmp ult i32 %2, %8
  br i1 %9, label %jit_checktrace.exit, label %jit_checktrace.exit.thread

jit_checktrace.exit:                              ; preds = %6
  %10 = getelementptr inbounds nuw i8, ptr %5, i64 1120
  %11 = load ptr, ptr %10, align 8, !tbaa !72
  %12 = zext i32 %2 to i64
  %13 = getelementptr inbounds nuw %struct.GCRef, ptr %11, i64 %12
  %14 = load i64, ptr %13, align 8, !tbaa !70
  %.not = icmp eq i64 %14, 0
  br i1 %.not, label %jit_checktrace.exit.thread, label %15

15:                                               ; preds = %jit_checktrace.exit
  %16 = inttoptr i64 %14 to ptr
  tail call void @lua_createtable(ptr noundef nonnull %0, i32 noundef 0, i32 noundef 8) #8
  %17 = getelementptr inbounds nuw i8, ptr %0, i64 40
  %18 = load ptr, ptr %17, align 8, !tbaa !32
  %19 = getelementptr inbounds i8, ptr %18, i64 -8
  %20 = load i64, ptr %19, align 8, !tbaa !34
  %21 = and i64 %20, 140737488355327
  %22 = inttoptr i64 %21 to ptr
  %23 = getelementptr inbounds nuw i8, ptr %16, i64 12
  %24 = load i32, ptr %23, align 4, !tbaa !73
  %25 = add nsw i32 %24, -32769
  %26 = tail call ptr @lj_str_new(ptr noundef nonnull %0, ptr noundef nonnull @.str.30, i64 noundef 4) #8
  %27 = tail call ptr @lj_tab_setstr(ptr noundef nonnull %0, ptr noundef %22, ptr noundef %26) #8
  %28 = sitofp i32 %25 to double
  store double %28, ptr %27, align 8, !tbaa !34
  %29 = getelementptr inbounds nuw i8, ptr %16, i64 40
  %30 = load i32, ptr %29, align 8, !tbaa !74
  %31 = sub nsw i32 32768, %30
  %32 = tail call ptr @lj_str_new(ptr noundef nonnull %0, ptr noundef nonnull @.str.31, i64 noundef 2) #8
  %33 = tail call ptr @lj_tab_setstr(ptr noundef nonnull %0, ptr noundef %22, ptr noundef %32) #8
  %34 = sitofp i32 %31 to double
  store double %34, ptr %33, align 8, !tbaa !34
  %35 = getelementptr inbounds nuw i8, ptr %16, i64 106
  %36 = load i16, ptr %35, align 2, !tbaa !75
  %37 = tail call ptr @lj_str_new(ptr noundef nonnull %0, ptr noundef nonnull @.str.32, i64 noundef 4) #8
  %38 = tail call ptr @lj_tab_setstr(ptr noundef nonnull %0, ptr noundef %22, ptr noundef %37) #8
  %39 = uitofp i16 %36 to double
  store double %39, ptr %38, align 8, !tbaa !34
  %40 = getelementptr inbounds nuw i8, ptr %16, i64 10
  %41 = load i16, ptr %40, align 2, !tbaa !76
  %42 = tail call ptr @lj_str_new(ptr noundef nonnull %0, ptr noundef nonnull @.str.33, i64 noundef 5) #8
  %43 = tail call ptr @lj_tab_setstr(ptr noundef nonnull %0, ptr noundef %22, ptr noundef %42) #8
  %44 = uitofp i16 %41 to double
  store double %44, ptr %43, align 8, !tbaa !34
  %45 = load ptr, ptr %17, align 8, !tbaa !32
  %46 = getelementptr inbounds nuw i8, ptr %45, i64 8
  store ptr %46, ptr %17, align 8, !tbaa !32
  %47 = getelementptr inbounds nuw i8, ptr %16, i64 116
  %48 = load i8, ptr %47, align 4, !tbaa !77
  %49 = zext i8 %48 to i64
  %50 = getelementptr inbounds nuw [9 x ptr], ptr @jit_trlinkname, i64 0, i64 %49
  %51 = load ptr, ptr %50, align 8, !tbaa !78
  %52 = tail call i64 @strlen(ptr noundef nonnull dereferenceable(1) %51) #11
  %53 = tail call ptr @lj_str_new(ptr noundef nonnull %0, ptr noundef nonnull %51, i64 noundef %52) #8
  %54 = ptrtoint ptr %53 to i64
  %55 = or i64 %54, -703687441776640
  store i64 %55, ptr %45, align 8, !tbaa !34
  tail call void @lua_setfield(ptr noundef nonnull %0, i32 noundef -2, ptr noundef nonnull @.str.34) #8
  br label %jit_checktrace.exit.thread

jit_checktrace.exit.thread:                       ; preds = %1, %6, %jit_checktrace.exit, %15
  %.0 = phi i32 [ 1, %15 ], [ 0, %jit_checktrace.exit ], [ 0, %6 ], [ 0, %1 ]
  ret i32 %.0
}